target datalayout = "e-m:e-p270:32:32-p271:32:32-p272:64:64-i64:64-i128:128-f80:128-n8:16:32:64-S128"
target triple = "x86_64-pc-linux-gnu"

@tty = external global ptr, align 8
@.str.9 = private unnamed_addr constant [35 x i8] c"Parent Object 0x%016lx not in heap\00", align 1
@.str.10 = private unnamed_addr constant [34 x i8] c"Child Object 0x%016lx not in heap\00", align 1
@_ZN8Universe14_collectedHeapE = external global ptr, align 8

; Function Attrs: mustprogress nounwind uwtable
define linkonce_odr hidden noundef i64 @_Z3p2iPVKv(ptr noundef %0) #1 comdat {
  %2 = alloca ptr, align 8
  store ptr %0, ptr %2, align 8
  %3 = load ptr, ptr %2, align 8
  %4 = ptrtoint ptr %3 to i64
  ret i64 %4
}

; Function Attrs: mustprogress nounwind uwtable
define linkonce_odr hidden noundef ptr @_ZN8Universe4heapEv() #1 comdat align 2 {
  %1 = load ptr, ptr @_ZN8Universe14_collectedHeapE, align 8
  ret ptr %1
}

; Function Attrs: mustprogress nounwind uwtable
define linkonce_odr hidden void @_ZN2os22verify_stack_alignmentEv() #1 comdat align 2 {
  ret void
}

; Function Attrs: mustprogress nounwind uwtable
define hidden noundef zeroext i8 @_ZN12JVMCIRuntime15validate_objectEP10JavaThreadP7oopDescS3_(ptr noundef %0, ptr noundef %1, ptr noundef %2) #1 align 2 {
  %4 = alloca ptr, align 8
  %5 = alloca ptr, align 8
  %6 = alloca ptr, align 8
  %7 = alloca i8, align 1
  store ptr %0, ptr %4, align 8
  store ptr %1, ptr %5, align 8
  store ptr %2, ptr %6, align 8
  call void @_ZN2os22verify_stack_alignmentEv()
  store i8 1, ptr %7, align 1
  %8 = call noundef ptr @_ZN8Universe4heapEv()
  %9 = load ptr, ptr %5, align 8
  %10 = load ptr, ptr %8, align 8
  %11 = getelementptr inbounds ptr, ptr %10, i64 16
  %12 = load ptr, ptr %11, align 8
  %13 = call noundef zeroext i1 %12(ptr noundef nonnull align 8 dereferenceable(104) %8, ptr noundef %9)
  br i1 %13, label %19, label %14

14:                                               ; preds = %3
  %15 = load ptr, ptr @tty, align 8
  %16 = load ptr, ptr %5, align 8
  %17 = call noundef i64 @_Z3p2iPVKv(ptr noundef %16)
  call void (ptr, ptr, ...) @_ZN12outputStream8print_crEPKcz(ptr noundef nonnull align 8 dereferenceable(56) %15, ptr noundef @.str.9, i64 noundef %17)
  %18 = load ptr, ptr %5, align 8
  call void @_ZN7oopDesc5printEv(ptr noundef nonnull align 8 dereferenceable(16) %18)
  store i8 0, ptr %7, align 1
  br label %19

19:                                               ; preds = %14, %3
  %20 = call noundef ptr @_ZN8Universe4heapEv()
  %21 = load ptr, ptr %6, align 8
  %22 = load ptr, ptr %20, align 8
  %23 = getelementptr inbounds ptr, ptr %22, i64 16
  %24 = load ptr, ptr %23, align 8
  %25 = call noundef zeroext i1 %24(ptr noundef nonnull align 8 dereferenceable(104) %20, ptr noundef %21)
  br i1 %25, label %31, label %26

26:                                               ; preds = %19
  %27 = load ptr, ptr @tty, align 8
  %28 = load ptr, ptr %6, align 8
  %29 = call noundef i64 @_Z3p2iPVKv(ptr noundef %28)
  call void (ptr, ptr, ...) @_ZN12outputStream8print_crEPKcz(ptr noundef nonnull align 8 dereferenceable(56) %27, ptr noundef @.str.10, i64 noundef %29)
  %30 = load ptr, ptr %6, align 8
  call void @_ZN7oopDesc5printEv(ptr noundef nonnull align 8 dereferenceable(16) %30)
  store i8 0, ptr %7, align 1
  br label %31

31:                                               ; preds = %26, %19
  %32 = load i8, ptr %7, align 1
  %33 = trunc i8 %32 to i1
  %34 = zext i1 %33 to i32
  %35 = trunc i32 %34 to i8
  ret i8 %35
}