; Function Attrs: mustprogress nounwind uwtable
define hidden noundef zeroext range(i8 0, 2) i8 @_ZN12JVMCIRuntime15validate_objectEP10JavaThreadP7oopDescS3_(ptr nocapture noundef readnone %0, ptr noundef %1, ptr noundef %2) local_unnamed_addr #0 align 2 {
  %4 = load ptr, ptr @_ZN8Universe14_collectedHeapE, align 8
  %5 = load ptr, ptr %4, align 8
  %6 = getelementptr inbounds i8, ptr %5, i64 128
  %7 = load ptr, ptr %6, align 8
  %8 = tail call noundef zeroext i1 %7(ptr noundef nonnull align 8 dereferenceable(104) %4, ptr noundef %1) #15
  br i1 %8, label %12, label %9

9:                                                ; preds = %3
  %10 = load ptr, ptr @tty, align 8
  %11 = ptrtoint ptr %1 to i64
  tail call void (ptr, ptr, ...) @_ZN12outputStream8print_crEPKcz(ptr noundef nonnull align 8 dereferenceable(56) %10, ptr noundef nonnull @.str.9, i64 noundef %11) #15
  tail call void @_ZN7oopDesc5printEv(ptr noundef nonnull align 8 dereferenceable(16) %1) #15
  br label %12

12:                                               ; preds = %9, %3
  %13 = load ptr, ptr @_ZN8Universe14_collectedHeapE, align 8
  %14 = load ptr, ptr %13, align 8
  %15 = getelementptr inbounds i8, ptr %14, i64 128
  %16 = load ptr, ptr %15, align 8
  %17 = tail call noundef zeroext i1 %16(ptr noundef nonnull align 8 dereferenceable(104) %13, ptr noundef %2) #15
  br i1 %17, label %21, label %18

18:                                               ; preds = %12
  %19 = load ptr, ptr @tty, align 8
  %20 = ptrtoint ptr %2 to i64
  tail call void (ptr, ptr, ...) @_ZN12outputStream8print_crEPKcz(ptr noundef nonnull align 8 dereferenceable(56) %19, ptr noundef nonnull @.str.10, i64 noundef %20) #15
  tail call void @_ZN7oopDesc5printEv(ptr noundef nonnull align 8 dereferenceable(16) %2) #15
  br label %21

21:                                               ; preds = %18, %12
  %.1 = phi i1 [ %8, %12 ], [ false, %18 ]
  %22 = zext i1 %.1 to i8
  ret i8 %22
}